target datalayout = "e-m:e-p270:32:32-p271:32:32-p272:64:64-i64:64-i128:128-f80:128-n8:16:32:64-S128"
target triple = "x86_64-unknown-linux-gnu"

; Function Attrs: mustprogress nounwind uwtable
define linkonce_odr hidden noundef i64 @_ZN3sat15constraint_base8ext_sizeEv() #4 comdat align 2 {
entry:
  ret i64 8
}

; Function Attrs: mustprogress uwtable
define linkonce_odr hidden noundef i64 @_ZN3sat15constraint_base8obj_sizeEm(i64 noundef %sz) #5 comdat align 2 {
entry:
  %sz.addr = alloca i64, align 8
  store i64 %sz, ptr %sz.addr, align 8
  %call = call noundef i64 @_ZN3sat15constraint_base8ext_sizeEv()
  %0 = load i64, ptr %sz.addr, align 8
  %add = add i64 %call, %0
  ret i64 %add
}

; Function Attrs: mustprogress uwtable
define hidden noundef i64 @_ZN3euf10th_explain12get_obj_sizeEjj(i32 noundef %num_lits, i32 noundef %num_eqs) #5 align 2 {
entry:
  %num_lits.addr = alloca i32, align 4
  %num_eqs.addr = alloca i32, align 4
  store i32 %num_lits, ptr %num_lits.addr, align 4
  store i32 %num_eqs, ptr %num_eqs.addr, align 4
  %0 = load i32, ptr %num_lits.addr, align 4
  %conv = zext i32 %0 to i64
  %mul = mul i64 4, %conv
  %add = add i64 56, %mul
  %1 = load i32, ptr %num_eqs.addr, align 4
  %conv1 = zext i32 %1 to i64
  %mul2 = mul i64 16, %conv1
  %add3 = add i64 %add, %mul2
  %call = call noundef i64 @_ZN3sat15constraint_base8obj_sizeEm(i64 noundef %add3)
  ret i64 %call
}