; Function Attrs: mustprogress nofree norecurse nosync nounwind willreturn memory(none) uwtable
define hidden noundef i64 @_ZN3euf10th_explain12get_obj_sizeEjj(i32 noundef %num_lits, i32 noundef %num_eqs) local_unnamed_addr #10 align 2 {
entry:
  %conv = zext i32 %num_lits to i64
  %mul = shl nuw nsw i64 %conv, 2
  %conv1 = zext i32 %num_eqs to i64
  %mul2 = shl nuw nsw i64 %conv1, 4
  %add3 = add nuw nsw i64 %mul, 64
  %add.i = add nuw nsw i64 %add3, %mul2
  ret i64 %add.i
}